target datalayout = "e-m:e-p270:32:32-p271:32:32-p272:64:64-i64:64-i128:128-f80:128-n8:16:32:64-S128"
target triple = "x86_64-pc-linux-gnu"

%struct.RString = type { %struct.RBasic, i64, %union.anon }
%struct.RBasic = type { i64, i64 }
%union.anon = type { %struct.anon }
%struct.anon = type { ptr, %union.anon.0 }
%union.anon.0 = type { i64 }
%struct.dump_arg = type { i64, i64, ptr, ptr, ptr, ptr, i64 }

; Function Attrs: inlinehint nounwind sspstrong willreturn memory(read) uwtable
define internal i64 @RSTRING_LEN(i64 noundef %0) #7 {
  %2 = alloca i64, align 8
  store i64 %0, ptr %2, align 8, !tbaa !7
  %3 = load i64, ptr %2, align 8, !tbaa !7
  %4 = inttoptr i64 %3 to ptr
  %5 = getelementptr inbounds nuw %struct.RString, ptr %4, i32 0, i32 1
  %6 = load i64, ptr %5, align 8, !tbaa !63
  ret i64 %6
}

; Function Attrs: nounwind sspstrong uwtable
define internal void @w_nbyte(ptr noundef %0, i64 noundef %1, ptr noundef %2) #0 {
  %4 = alloca ptr, align 8
  %5 = alloca i64, align 8
  %6 = alloca ptr, align 8
  %7 = alloca i64, align 8
  store ptr %0, ptr %4, align 8, !tbaa !20
  store i64 %1, ptr %5, align 8, !tbaa !7
  store ptr %2, ptr %6, align 8, !tbaa !39
  call void @llvm.lifetime.start.p0(i64 8, ptr %7) #23
  %8 = load ptr, ptr %6, align 8, !tbaa !39
  %9 = getelementptr inbounds nuw %struct.dump_arg, ptr %8, i32 0, i32 0
  %10 = load i64, ptr %9, align 8, !tbaa !48
  store i64 %10, ptr %7, align 8, !tbaa !7
  %11 = load i64, ptr %7, align 8, !tbaa !7
  %12 = load ptr, ptr %4, align 8, !tbaa !20
  %13 = load i64, ptr %5, align 8, !tbaa !7
  %14 = call i64 @rb_str_cat(i64 noundef %11, ptr noundef %12, i64 noundef %13)
  %15 = load ptr, ptr %6, align 8, !tbaa !39
  %16 = getelementptr inbounds nuw %struct.dump_arg, ptr %15, i32 0, i32 1
  %17 = load i64, ptr %16, align 8, !tbaa !41
  %18 = icmp ne i64 %17, 0
  br i1 %18, label %19, label %31

19:                                               ; preds = %3
  %20 = load i64, ptr %7, align 8, !tbaa !7
  %21 = call i64 @RSTRING_LEN(i64 noundef %20) #27
  %22 = icmp sge i64 %21, 8192
  br i1 %22, label %23, label %31

23:                                               ; preds = %19
  %24 = load ptr, ptr %6, align 8, !tbaa !39
  %25 = getelementptr inbounds nuw %struct.dump_arg, ptr %24, i32 0, i32 1
  %26 = load i64, ptr %25, align 8, !tbaa !41
  %27 = load i64, ptr %7, align 8, !tbaa !7
  %28 = call i64 @rb_io_write(i64 noundef %26, i64 noundef %27)
  %29 = load i64, ptr %7, align 8, !tbaa !7
  %30 = call i64 @rb_str_resize(i64 noundef %29, i64 noundef 0)
  br label %31

31:                                               ; preds = %23, %19, %3
  call void @llvm.lifetime.end.p0(i64 8, ptr %7) #23
  ret void
}

; Function Attrs: nounwind sspstrong uwtable
define internal void @w_bytes(ptr noundef %0, i64 noundef %1, ptr noundef %2) #0 {
  %4 = alloca ptr, align 8
  %5 = alloca i64, align 8
  %6 = alloca ptr, align 8
  store ptr %0, ptr %4, align 8, !tbaa !20
  store i64 %1, ptr %5, align 8, !tbaa !7
  store ptr %2, ptr %6, align 8, !tbaa !39
  %7 = load i64, ptr %5, align 8, !tbaa !7
  %8 = load ptr, ptr %6, align 8, !tbaa !39
  call void @w_long(i64 noundef %7, ptr noundef %8)
  %9 = load ptr, ptr %4, align 8, !tbaa !20
  %10 = load i64, ptr %5, align 8, !tbaa !7
  %11 = load ptr, ptr %6, align 8, !tbaa !39
  call void @w_nbyte(ptr noundef %9, i64 noundef %10, ptr noundef %11)
  ret void
}