; Function Attrs: nounwind sspstrong uwtable
define internal fastcc void @w_bytes(ptr noundef %0, i64 noundef %1, ptr noundef readonly captures(none) %2) unnamed_addr #0 {
  tail call fastcc void @w_long(i64 noundef %1, ptr noundef %2)
  %4 = load i64, ptr %2, align 8, !tbaa !40
  %5 = tail call i64 @rb_str_cat(i64 noundef %4, ptr noundef %0, i64 noundef %1) #22
  %6 = getelementptr inbounds nuw i8, ptr %2, i64 8
  %7 = load i64, ptr %6, align 8, !tbaa !36
  %.not.i = icmp eq i64 %7, 0
  br i1 %.not.i, label %w_nbyte.exit, label %8

8:                                                ; preds = %3
  %9 = inttoptr i64 %4 to ptr
  %10 = getelementptr inbounds nuw i8, ptr %9, i64 16
  %11 = load i64, ptr %10, align 8, !tbaa !41
  %12 = icmp sgt i64 %11, 8191
  br i1 %12, label %13, label %w_nbyte.exit

13:                                               ; preds = %8
  %14 = tail call i64 @rb_io_write(i64 noundef %7, i64 noundef %4) #22
  %15 = tail call i64 @rb_str_resize(i64 noundef %4, i64 noundef 0) #22
  br label %w_nbyte.exit

w_nbyte.exit:                                     ; preds = %3, %8, %13
  ret void
}